; Function Attrs: nounwind uwtable
define range(i32 -21, 1) i32 @arkStep_AttachLinsol(ptr noundef %0, ptr noundef %1, ptr noundef %2, ptr noundef %3, ptr noundef %4, i32 noundef %5, ptr noundef %6) #0 {
  %8 = getelementptr inbounds nuw i8, ptr %0, i64 136
  %9 = load ptr, ptr %8, align 8, !tbaa !77
  %10 = icmp eq ptr %9, null
  br i1 %10, label %arkStep_AccessStepMem.exit, label %11

arkStep_AccessStepMem.exit:                       ; preds = %7
  tail call void (ptr, i32, i32, ptr, ptr, ptr, ...) @arkProcessError(ptr noundef nonnull %0, i32 noundef -21, i32 noundef 2165, ptr noundef nonnull @__func__.arkStep_AttachLinsol, ptr noundef nonnull @.str, ptr noundef nonnull @.str.57) #13
  br label %24

11:                                               ; preds = %7
  %12 = getelementptr inbounds nuw i8, ptr %9, i64 304
  %13 = load ptr, ptr %12, align 8, !tbaa !98
  %.not12 = icmp eq ptr %13, null
  br i1 %.not12, label %16, label %14

14:                                               ; preds = %11
  %15 = tail call i32 %13(ptr noundef nonnull %0) #13
  br label %16

16:                                               ; preds = %14, %11
  %17 = getelementptr inbounds nuw i8, ptr %9, i64 280
  store ptr %1, ptr %17, align 8, !tbaa !99
  %18 = getelementptr inbounds nuw i8, ptr %9, i64 288
  store ptr %2, ptr %18, align 8, !tbaa !100
  %19 = getelementptr inbounds nuw i8, ptr %9, i64 296
  store ptr %3, ptr %19, align 8, !tbaa !101
  store ptr %4, ptr %12, align 8, !tbaa !98
  %20 = getelementptr inbounds nuw i8, ptr %9, i64 312
  store ptr %6, ptr %20, align 8, !tbaa !102
  %21 = getelementptr inbounds nuw i8, ptr %9, i64 320
  store i32 %5, ptr %21, align 8, !tbaa !91
  %22 = getelementptr inbounds nuw i8, ptr %9, i64 400
  store i64 0, ptr %22, align 8, !tbaa !103
  %23 = getelementptr inbounds nuw i8, ptr %9, i64 248
  store i64 0, ptr %23, align 8, !tbaa !94
  br label %24

24:                                               ; preds = %arkStep_AccessStepMem.exit, %16
  %.0 = phi i32 [ 0, %16 ], [ -21, %arkStep_AccessStepMem.exit ]
  ret i32 %.0
}